; Function Attrs: nounwind uwtable
define dso_local range(i64 -2147483648, 2147483648) i64 @pg_stat_get_backend_pid(ptr noundef captures(none) %0) local_unnamed_addr #0 {
  %2 = getelementptr inbounds nuw i8, ptr %0, i64 32
  %3 = load i64, ptr %2, align 8
  %4 = trunc i64 %3 to i32
  %5 = tail call ptr @pgstat_get_beentry_by_proc_number(i32 noundef %4) #9
  %6 = icmp eq ptr %5, null
  br i1 %6, label %7, label %9

7:                                                ; preds = %1
  %8 = getelementptr inbounds nuw i8, ptr %0, i64 28
  store i8 1, ptr %8, align 4
  br label %13

9:                                                ; preds = %1
  %10 = getelementptr inbounds nuw i8, ptr %5, i64 4
  %11 = load i32, ptr %10, align 4
  %12 = sext i32 %11 to i64
  br label %13

13:                                               ; preds = %9, %7
  %.0 = phi i64 [ 0, %7 ], [ %12, %9 ]
  ret i64 %.0
}